Certificate:
    Data:
        Version: 3 (0x2)
        Serial Number: 1 (0x1)
    Signature Algorithm: sha1WithRSAEncryption
        Issuer: C=GR, ST=Attiki, L=Athens, O=SnakeOIL, OU=SnakeOIL Department
        Validity
            Not Before: Sep 25 11:30:17 2014 GMT
            Not After : Sep 25 11:30:17 2015 GMT
        Subject: C=GR, ST=Attiki, O=SnakeOIL, OU=SnakeOIL Department, CN=m1.example.org
        Subject Public Key Info:
            Public Key Algorithm: rsaEncryption
                Public-Key: (2048 bit)
                Modulus:
                    00:d3:24:08:04:8b:ef:df:dd:e3:cb:91:6d:65:14:
                    e2:fb:8c:8a:96:dd:db:52:0a:2f:8e:a2:c4:51:89:
                    07:6d:bb:45:7a:71:f0:85:b6:95:e9:bc:57:5a:f5:
                    f4:4c:8f:d0:5c:5e:c3:eb:a8:28:c8:2c:68:99:86:
                    74:c0:49:2e:08:c4:7c:71:85:c1:1b:ca:9c:33:b1:
                    38:d4:a0:98:83:fb:88:24:e6:48:fb:e6:bb:66:06:
                    b9:ac:cb:5d:ee:68:36:81:02:63:fe:a1:8e:ce:7a:
                    2b:a5:00:af:51:e8:21:63:82:c5:ac:49:ce:61:77:
                    a8:6e:31:14:91:bc:e4:c7:a2:e4:87:11:25:d9:bb:
                    62:99:f5:7e:c2:b4:9f:86:e2:4f:16:cf:dd:c2:0c:
                    40:bb:4e:a1:6a:8a:66:93:23:5f:77:ed:2f:6e:2d:
                    32:48:21:e2:1c:2f:3a:2f:4b:14:11:a1:62:88:14:
                    8a:89:3b:54:7a:16:0b:e5:7c:4c:ca:da:5f:7a:49:
                    9e:44:aa:ef:f2:d4:3a:2b:09:3a:0e:f4:4e:01:ec:
                    32:48:6d:0f:81:3c:99:96:70:b1:8c:6f:92:36:e7:
                    ff:85:3f:90:a1:9d:96:8f:4b:0e:24:21:62:b2:8e:
                    f5:f1:b2:44:45:9b:e4:93:04:33:a5:8c:ff:d2:b7:
                    88:89
                Exponent: 65537 (0x10001)
        X509v3 extensions:
            X509v3 Basic Constraints: 
                CA:FALSE
            Netscape Comment: 
                OpenSSL Generated Certificate
            X509v3 Subject Key Identifier: 
                BB:73:00:BE:9E:F6:5C:48:5A:74:96:60:E8:E3:E2:C7:02:E2:21:77
            X509v3 Authority Key Identifier: 
                keyid:42:C5:A2:59:79:98:B7:1B:FB:F0:AC:D0:14:AB:14:7C:43:BE:99:5E

    Signature Algorithm: sha1WithRSAEncryption
         12:56:36:4c:fc:c8:76:04:e7:b9:34:a9:34:f3:7e:53:f6:3c:
         07:a4:1b:b0:40:78:f2:fc:9c:83:69:33:d1:33:01:93:5e:76:
         14:c0:1a:ba:9e:7e:32:d2:01:e6:54:ef:aa:15:1d:40:43:1f:
         c8:4a:17:48:e4:a2:4a:81:9f:05:e0:a2:e1:c3:2d:24:3e:8d:
         81:87:12:fd:65:90:e6:d6:ed:72:48:84:0e:ea:4e:62:15:8c:
         fc:a1:bc:aa:49:5f:9f:0f:5e:1d:8b:59:94:95:fa:af:8d:16:
         c1:8b:0a:e0:f3:85:3e:ad:c4:9c:31:f1:fe:c7:2f:58:5d:c8:
         b3:90:34:2e:95:02:84:dc:bb:2c:18:af:99:6b:08:6b:e1:49:
         e7:e4:29:25:3e:fa:fd:49:3a:27:95:6c:33:48:6b:89:ba:1d:
         0d:4f:72:e9:ff:2d:8e:41:8d:59:63:13:42:33:28:11:ce:a4:
         6c:d0:f7:20:4b:6c:13:0f:23:dc:ee:2e:cf:5e:55:a7:6e:28:
         91:08:42:25:7e:cc:44:f7:b6:c9:72:1d:2e:27:7d:f3:11:2c:
         a5:16:57:3d:b8:70:54:00:20:73:f8:46:fd:b9:76:ab:88:95:
         68:8b:a2:49:32:4e:de:a5:97:34:2a:48:e0:cb:fb:d3:5c:e6:
         82:02:68:0f
-----BEGIN CERTIFICATE-----
MIIDvjCCAqagAwIBAgIBATANBgkqhkiG9w0BAQUFADBgMQswCQYDVQQGEwJHUjEP
MA0GA1UECAwGQXR0aWtpMQ8wDQYDVQQHDAZBdGhlbnMxETAPBgNVBAoMCFNuYWtl
T0lMMRwwGgYDVQQLDBNTbmFrZU9JTCBEZXBhcnRtZW50MB4XDTE0MDkyNTExMzAx
N1oXDTE1MDkyNTExMzAxN1owaDELMAkGA1UEBhMCR1IxDzANBgNVBAgMBkF0dGlr
aTERMA8GA1UECgwIU25ha2VPSUwxHDAaBgNVBAsME1NuYWtlT0lMIERlcGFydG1l
bnQxFzAVBgNVBAMMDm0xLmV4YW1wbGUub3JnMIIBIjANBgkqhkiG9w0BAQEFAAOC
AQ8AMIIBCgKCAQEA0yQIBIvv393jy5FtZRTi+4yKlt3bUgovjqLEUYkHbbtFenHw
hbaV6bxXWvX0TI/QXF7D66goyCxomYZ0wEkuCMR8cYXBG8qcM7E41KCYg/uIJOZI
++a7Zga5rMtd7mg2gQJj/qGOznorpQCvUeghY4LFrEnOYXeobjEUkbzkx6LkhxEl
2btimfV+wrSfhuJPFs/dwgxAu06haopmkyNfd+0vbi0ySCHiHC86L0sUEaFiiBSK
iTtUehYL5XxMytpfekmeRKrv8tQ6Kwk6DvROAewySG0PgTyZlnCxjG+SNuf/hT+Q
oZ2Wj0sOJCFiso718bJERZvkkwQzpYz/0reIiQIDAQABo3sweTAJBgNVHRMEAjAA
MCwGCWCGSAGG+EIBDQQfFh1PcGVuU1NMIEdlbmVyYXRlZCBDZXJ0aWZpY2F0ZTAd
BgNVHQ4EFgQUu3MAvp72XEhadJZg6OPixwLiIXcwHwYDVR0jBBgwFoAUQsWiWXmY
txv78KzQFKsUfEO+mV4wDQYJKoZIhvcNAQEFBQADggEBABJWNkz8yHYE57k0qTTz
flP2PAekG7BAePL8nINpM9EzAZNedhTAGrqefjLSAeZU76oVHUBDH8hKF0jkokqB
nwXgouHDLSQ+jYGHEv1lkObW7XJIhA7qTmIVjPyhvKpJX58PXh2LWZSV+q+NFsGL
CuDzhT6txJwx8f7HL1hdyLOQNC6VAoTcuywYr5lrCGvhSefkKSU++v1JOieVbDNI
a4m6HQ1Pcun/LY5BjVljE0IzKBHOpGzQ9yBLbBMPI9zuLs9eVaduKJEIQiV+zET3
tslyHS4nffMRLKUWVz24cFQAIHP4Rv25dquIlWiLokkyTt6llzQqSODL+9Nc5oIC
aA8=
-----END CERTIFICATE-----
