Certificate:
    Data:
        Version: 3 (0x2)
        Serial Number: 4 (0x4)
    Signature Algorithm: sha256WithRSAEncryption
        Issuer: C=GR, ST=Attiki, L=Athens, O=SnakeOIL, OU=SnakeOIL Department
        Validity
            Not Before: Jun  9 14:41:32 2016 GMT
            Not After : Nov 30 14:41:32 2022 GMT
        Subject: C=GR, ST=Attiki, O=SnakeOIL, OU=SnakeOIL Department, CN=m1.example.org
        Subject Public Key Info:
            Public Key Algorithm: rsaEncryption
                Public-Key: (2048 bit)
                Modulus:
                    00:d3:24:08:04:8b:ef:df:dd:e3:cb:91:6d:65:14:
                    e2:fb:8c:8a:96:dd:db:52:0a:2f:8e:a2:c4:51:89:
                    07:6d:bb:45:7a:71:f0:85:b6:95:e9:bc:57:5a:f5:
                    f4:4c:8f:d0:5c:5e:c3:eb:a8:28:c8:2c:68:99:86:
                    74:c0:49:2e:08:c4:7c:71:85:c1:1b:ca:9c:33:b1:
                    38:d4:a0:98:83:fb:88:24:e6:48:fb:e6:bb:66:06:
                    b9:ac:cb:5d:ee:68:36:81:02:63:fe:a1:8e:ce:7a:
                    2b:a5:00:af:51:e8:21:63:82:c5:ac:49:ce:61:77:
                    a8:6e:31:14:91:bc:e4:c7:a2:e4:87:11:25:d9:bb:
                    62:99:f5:7e:c2:b4:9f:86:e2:4f:16:cf:dd:c2:0c:
                    40:bb:4e:a1:6a:8a:66:93:23:5f:77:ed:2f:6e:2d:
                    32:48:21:e2:1c:2f:3a:2f:4b:14:11:a1:62:88:14:
                    8a:89:3b:54:7a:16:0b:e5:7c:4c:ca:da:5f:7a:49:
                    9e:44:aa:ef:f2:d4:3a:2b:09:3a:0e:f4:4e:01:ec:
                    32:48:6d:0f:81:3c:99:96:70:b1:8c:6f:92:36:e7:
                    ff:85:3f:90:a1:9d:96:8f:4b:0e:24:21:62:b2:8e:
                    f5:f1:b2:44:45:9b:e4:93:04:33:a5:8c:ff:d2:b7:
                    88:89
                Exponent: 65537 (0x10001)
        X509v3 extensions:
            X509v3 Basic Constraints: 
                CA:FALSE
            Netscape Comment: 
                OpenSSL Generated Certificate
            X509v3 Subject Key Identifier: 
                BB:73:00:BE:9E:F6:5C:48:5A:74:96:60:E8:E3:E2:C7:02:E2:21:77
            X509v3 Authority Key Identifier: 
                keyid:42:C5:A2:59:79:98:B7:1B:FB:F0:AC:D0:14:AB:14:7C:43:BE:99:5E

    Signature Algorithm: sha256WithRSAEncryption
         38:ab:0f:0a:82:e9:22:3b:96:97:77:e4:3c:92:4b:87:80:bb:
         b8:51:03:3c:e6:fa:a3:a3:4a:31:b8:7c:56:eb:dd:b4:c7:d4:
         62:a7:20:3b:05:84:18:7d:44:32:09:0c:6b:85:9c:ee:8a:b8:
         cf:a8:31:df:61:21:0a:c1:52:7d:44:5e:a1:d4:fe:c2:0c:65:
         06:4c:ea:65:29:7b:70:51:d5:ac:c7:d7:15:b3:1c:74:4e:af:
         02:fd:fb:f1:93:f7:05:29:ef:73:3d:96:cd:92:18:0a:c0:45:
         50:9e:70:ca:31:c4:67:81:ce:c6:30:7e:ff:89:d8:76:0b:2f:
         8f:55:dc:91:a5:86:35:0d:be:df:60:76:93:18:64:e2:da:7d:
         1f:89:1b:2a:c5:86:64:50:19:1f:10:72:80:42:5b:fc:c5:b4:
         cc:af:96:0e:98:9a:16:a1:1d:c2:0a:9d:a1:e5:08:a0:e7:3a:
         0c:68:d4:e5:9c:7c:78:35:2a:a2:3e:45:b0:37:32:9a:05:84:
         6d:36:0d:87:b2:4b:43:cd:19:74:b9:45:c3:5e:01:fe:89:e5:
         d3:cd:06:cc:12:b9:28:5b:60:77:85:ac:0e:24:31:3d:f5:1e:
         c4:bf:b7:3a:e8:a4:1d:c4:0a:05:79:81:9c:28:91:a6:71:22:
         ed:f4:97:31
-----BEGIN CERTIFICATE-----
MIIDvjCCAqagAwIBAgIBBDANBgkqhkiG9w0BAQsFADBgMQswCQYDVQQGEwJHUjEP
MA0GA1UECAwGQXR0aWtpMQ8wDQYDVQQHDAZBdGhlbnMxETAPBgNVBAoMCFNuYWtl
T0lMMRwwGgYDVQQLDBNTbmFrZU9JTCBEZXBhcnRtZW50MB4XDTE2MDYwOTE0NDEz
MloXDTIyMTEzMDE0NDEzMlowaDELMAkGA1UEBhMCR1IxDzANBgNVBAgMBkF0dGlr
aTERMA8GA1UECgwIU25ha2VPSUwxHDAaBgNVBAsME1NuYWtlT0lMIERlcGFydG1l
bnQxFzAVBgNVBAMMDm0xLmV4YW1wbGUub3JnMIIBIjANBgkqhkiG9w0BAQEFAAOC
AQ8AMIIBCgKCAQEA0yQIBIvv393jy5FtZRTi+4yKlt3bUgovjqLEUYkHbbtFenHw
hbaV6bxXWvX0TI/QXF7D66goyCxomYZ0wEkuCMR8cYXBG8qcM7E41KCYg/uIJOZI
++a7Zga5rMtd7mg2gQJj/qGOznorpQCvUeghY4LFrEnOYXeobjEUkbzkx6LkhxEl
2btimfV+wrSfhuJPFs/dwgxAu06haopmkyNfd+0vbi0ySCHiHC86L0sUEaFiiBSK
iTtUehYL5XxMytpfekmeRKrv8tQ6Kwk6DvROAewySG0PgTyZlnCxjG+SNuf/hT+Q
oZ2Wj0sOJCFiso718bJERZvkkwQzpYz/0reIiQIDAQABo3sweTAJBgNVHRMEAjAA
MCwGCWCGSAGG+EIBDQQfFh1PcGVuU1NMIEdlbmVyYXRlZCBDZXJ0aWZpY2F0ZTAd
BgNVHQ4EFgQUu3MAvp72XEhadJZg6OPixwLiIXcwHwYDVR0jBBgwFoAUQsWiWXmY
txv78KzQFKsUfEO+mV4wDQYJKoZIhvcNAQELBQADggEBADirDwqC6SI7lpd35DyS
S4eAu7hRAzzm+qOjSjG4fFbr3bTH1GKnIDsFhBh9RDIJDGuFnO6KuM+oMd9hIQrB
Un1EXqHU/sIMZQZM6mUpe3BR1azH1xWzHHROrwL9+/GT9wUp73M9ls2SGArARVCe
cMoxxGeBzsYwfv+J2HYLL49V3JGlhjUNvt9gdpMYZOLafR+JGyrFhmRQGR8QcoBC
W/zFtMyvlg6YmhahHcIKnaHlCKDnOgxo1OWcfHg1KqI+RbA3MpoFhG02DYeyS0PN
GXS5RcNeAf6J5dPNBswSuShbYHeFrA4kMT31HsS/tzropB3ECgV5gZwokaZxIu30
lzE=
-----END CERTIFICATE-----
