Certificate:
    Data:
        Version: 3 (0x2)
        Serial Number: 5 (0x5)
    Signature Algorithm: sha256WithRSAEncryption
        Issuer: C=GR, ST=Attiki, L=Athens, O=SnakeOIL, OU=SnakeOIL Department
        Validity
            Not Before: Jun  9 14:41:33 2016 GMT
            Not After : Nov 30 14:41:33 2022 GMT
        Subject: C=GR, ST=Attiki, O=SnakeOIL, OU=SnakeOIL Department, CN=m2.example.org
        Subject Public Key Info:
            Public Key Algorithm: rsaEncryption
                Public-Key: (2048 bit)
                Modulus:
                    00:9f:25:74:4a:74:19:82:fc:44:2c:00:6a:bf:ca:
                    d9:d9:97:e9:9b:02:c0:81:7b:d1:2d:d1:c6:84:fe:
                    9c:da:28:47:a9:2f:8e:e5:e3:14:01:65:16:c1:3d:
                    c7:95:ea:a8:d3:5d:22:6e:65:d4:55:60:95:81:b3:
                    d2:fb:f2:2c:e8:c8:a9:b4:8a:62:4a:b0:71:5b:2f:
                    21:9a:e7:8b:14:b3:fa:30:4a:4d:25:2f:df:0b:23:
                    42:90:0f:31:d9:fd:a1:25:90:f6:f7:9d:68:82:a5:
                    d2:47:2a:e9:89:2e:f6:35:d7:9f:6a:2b:2f:5c:f0:
                    31:1f:09:d9:a6:fc:38:4a:af:b3:86:77:2b:64:5f:
                    af:51:d2:b1:11:5e:04:dc:c8:cd:8e:1a:3c:2e:2c:
                    44:f5:6f:71:60:7d:16:37:e6:67:43:27:a7:72:39:
                    69:95:11:f4:85:9e:b9:00:17:45:4f:54:96:e8:e7:
                    99:81:db:6c:fb:79:bd:7a:f2:8c:43:1d:8f:13:e4:
                    e1:09:46:d3:a0:72:52:20:ce:3e:dc:24:f8:af:4a:
                    7c:d3:ee:12:8f:5d:0b:8c:21:0c:23:0d:5a:e5:7e:
                    c5:82:53:fb:d0:56:cc:cb:e1:04:29:58:6c:b4:d3:
                    f0:36:2c:2a:d4:a0:2a:38:03:6e:16:d7:5d:cb:cc:
                    a4:27
                Exponent: 65537 (0x10001)
        X509v3 extensions:
            X509v3 Basic Constraints: 
                CA:FALSE
            Netscape Comment: 
                OpenSSL Generated Certificate
            X509v3 Subject Key Identifier: 
                7E:0E:2A:68:A9:9C:F8:1B:D8:1D:6F:0F:A0:0F:D0:A6:F6:39:07:6E
            X509v3 Authority Key Identifier: 
                keyid:42:C5:A2:59:79:98:B7:1B:FB:F0:AC:D0:14:AB:14:7C:43:BE:99:5E

    Signature Algorithm: sha256WithRSAEncryption
         1d:1e:bd:c8:9d:76:47:2f:d6:d9:08:3a:ec:af:2b:71:60:c3:
         98:97:35:23:a3:3f:1c:02:25:0f:36:5d:61:4a:05:fa:f8:9b:
         16:e2:97:72:78:be:21:b8:56:44:48:92:e9:9f:bf:35:e7:8c:
         ac:20:bc:6d:c9:61:9d:b5:e0:00:9f:ba:59:23:6f:ad:ab:de:
         1b:f3:e0:59:cf:8b:76:bf:74:69:37:b7:91:d1:ee:ee:58:6e:
         68:e9:6c:88:89:d9:9d:1e:dc:cc:9a:7a:f3:fd:ea:f6:69:63:
         4d:e0:85:81:35:b4:81:c5:5e:6f:95:dc:39:79:2d:50:98:85:
         9c:e3:d2:ee:e0:47:f7:21:8e:b5:d6:4e:7b:e2:5c:16:b9:a1:
         5f:cc:01:34:48:91:73:96:8a:bb:52:17:97:fe:27:c9:a5:df:
         fb:4e:0e:eb:c7:6f:56:55:bd:f4:8d:89:75:89:fa:b2:ba:c6:
         92:b8:34:b3:d2:8b:c4:27:d9:03:f9:9d:6d:a0:3e:cf:48:fb:
         fe:e7:08:52:09:2a:ec:9f:9b:a0:97:8a:a7:67:69:43:36:d7:
         2b:c1:29:65:b1:30:59:56:80:97:c9:ca:a9:58:a6:d4:cc:17:
         03:78:b6:bb:23:77:07:fd:6e:85:58:f1:79:42:2f:2a:57:d1:
         f6:00:1e:a3
-----BEGIN CERTIFICATE-----
MIIDvjCCAqagAwIBAgIBBTANBgkqhkiG9w0BAQsFADBgMQswCQYDVQQGEwJHUjEP
MA0GA1UECAwGQXR0aWtpMQ8wDQYDVQQHDAZBdGhlbnMxETAPBgNVBAoMCFNuYWtl
T0lMMRwwGgYDVQQLDBNTbmFrZU9JTCBEZXBhcnRtZW50MB4XDTE2MDYwOTE0NDEz
M1oXDTIyMTEzMDE0NDEzM1owaDELMAkGA1UEBhMCR1IxDzANBgNVBAgMBkF0dGlr
aTERMA8GA1UECgwIU25ha2VPSUwxHDAaBgNVBAsME1NuYWtlT0lMIERlcGFydG1l
bnQxFzAVBgNVBAMMDm0yLmV4YW1wbGUub3JnMIIBIjANBgkqhkiG9w0BAQEFAAOC
AQ8AMIIBCgKCAQEAnyV0SnQZgvxELABqv8rZ2ZfpmwLAgXvRLdHGhP6c2ihHqS+O
5eMUAWUWwT3Hleqo010ibmXUVWCVgbPS+/Is6MiptIpiSrBxWy8hmueLFLP6MEpN
JS/fCyNCkA8x2f2hJZD2951ogqXSRyrpiS72NdefaisvXPAxHwnZpvw4Sq+zhncr
ZF+vUdKxEV4E3MjNjho8LixE9W9xYH0WN+ZnQyencjlplRH0hZ65ABdFT1SW6OeZ
gdts+3m9evKMQx2PE+ThCUbToHJSIM4+3CT4r0p80+4Sj10LjCEMIw1a5X7FglP7
0FbMy+EEKVhstNPwNiwq1KAqOANuFtddy8ykJwIDAQABo3sweTAJBgNVHRMEAjAA
MCwGCWCGSAGG+EIBDQQfFh1PcGVuU1NMIEdlbmVyYXRlZCBDZXJ0aWZpY2F0ZTAd
BgNVHQ4EFgQUfg4qaKmc+BvYHW8PoA/QpvY5B24wHwYDVR0jBBgwFoAUQsWiWXmY
txv78KzQFKsUfEO+mV4wDQYJKoZIhvcNAQELBQADggEBAB0evciddkcv1tkIOuyv
K3Fgw5iXNSOjPxwCJQ82XWFKBfr4mxbil3J4viG4VkRIkumfvzXnjKwgvG3JYZ21
4ACfulkjb62r3hvz4FnPi3a/dGk3t5HR7u5YbmjpbIiJ2Z0e3MyaevP96vZpY03g
hYE1tIHFXm+V3Dl5LVCYhZzj0u7gR/chjrXWTnviXBa5oV/MATRIkXOWirtSF5f+
J8ml3/tODuvHb1ZVvfSNiXWJ+rK6xpK4NLPSi8Qn2QP5nW2gPs9I+/7nCFIJKuyf
m6CXiqdnaUM21yvBKWWxMFlWgJfJyqlYptTMFwN4trsjdwf9boVY8XlCLypX0fYA
HqM=
-----END CERTIFICATE-----
