Certificate:
    Data:
        Version: 3 (0x2)
        Serial Number: 6 (0x6)
    Signature Algorithm: sha256WithRSAEncryption
        Issuer: C=GR, ST=Attiki, L=Athens, O=SnakeOIL, OU=SnakeOIL Department
        Validity
            Not Before: Jun  9 14:41:34 2016 GMT
            Not After : Nov 30 14:41:34 2022 GMT
        Subject: C=GR, ST=Attiki, O=SnakeOIL, OU=SnakeOIL Department, CN=s1.example.org
        Subject Public Key Info:
            Public Key Algorithm: rsaEncryption
                Public-Key: (2048 bit)
                Modulus:
                    00:cf:98:f9:67:85:f4:bc:47:6c:15:28:99:a6:7e:
                    44:48:e5:31:90:2f:4e:41:1e:48:0d:e0:d6:18:d0:
                    94:fb:c7:92:1d:8c:42:b6:36:c0:9a:45:de:13:a5:
                    c0:e4:36:4d:18:35:c7:09:10:96:9d:d6:02:7c:e2:
                    f2:7e:ef:16:4f:f5:0c:c4:98:f3:ef:10:cd:9f:6a:
                    5a:13:17:d4:54:e2:ce:49:10:3f:60:3f:7c:bd:3a:
                    31:f1:db:5a:6d:76:61:ff:f1:c7:46:96:e1:d9:9c:
                    07:2e:d4:f3:d4:dc:ab:25:3d:5c:8b:48:82:54:6a:
                    50:b0:96:43:54:ab:97:b7:c0:d2:07:75:bc:56:b0:
                    af:ff:55:54:7d:ac:54:e9:05:1e:5d:a8:7a:31:df:
                    94:65:4e:1b:a2:70:d6:1b:bd:04:5e:20:75:56:64:
                    77:59:93:c2:9f:9d:d1:60:fd:6d:ff:d4:f9:2a:4b:
                    cb:66:04:f1:92:a2:b1:19:5d:9c:0f:6d:de:d7:5a:
                    ad:d0:17:a3:27:4d:6f:c0:9f:89:12:83:34:62:7b:
                    10:b9:ab:31:0d:e8:d2:cf:18:5a:5a:d0:d4:f4:89:
                    82:5b:e8:33:6b:e8:0f:53:4c:7e:d9:b3:fe:dd:00:
                    e9:ba:8e:cd:c1:4b:b3:a9:26:02:19:2a:d2:17:d6:
                    34:0d
                Exponent: 65537 (0x10001)
        X509v3 extensions:
            X509v3 Basic Constraints: 
                CA:FALSE
            Netscape Comment: 
                OpenSSL Generated Certificate
            X509v3 Subject Key Identifier: 
                56:4B:44:00:F2:26:E2:FE:93:F7:F3:C9:65:07:D5:83:84:EF:7A:8D
            X509v3 Authority Key Identifier: 
                keyid:42:C5:A2:59:79:98:B7:1B:FB:F0:AC:D0:14:AB:14:7C:43:BE:99:5E

    Signature Algorithm: sha256WithRSAEncryption
         85:f2:23:04:f5:5f:05:82:39:ce:72:88:9e:45:9c:f6:b4:fe:
         89:0c:e0:41:bf:4b:2e:51:50:b9:da:af:d6:23:a7:4e:f8:65:
         30:98:59:21:a6:6f:59:64:14:76:91:53:b0:1c:ad:8d:91:7b:
         91:b0:a4:07:f5:14:16:c3:ef:c8:27:7f:47:d7:42:ac:7f:c3:
         76:96:13:f3:6c:0f:e8:5c:70:84:42:45:3b:e5:05:74:ea:61:
         9f:3e:4b:af:e8:03:51:fa:9c:ff:82:4b:2a:6a:90:18:ee:fa:
         60:53:61:b4:c5:31:c5:f7:6b:af:5b:45:b1:33:3d:29:3d:84:
         e9:62:66:fe:a0:51:19:df:74:d5:13:0e:7e:8d:d6:56:41:cd:
         35:87:31:37:eb:a6:50:36:cf:c4:13:50:19:04:dc:ff:83:05:
         32:d8:fa:dd:47:1c:29:cd:1c:d7:46:18:e4:54:82:ca:77:b3:
         02:e4:cf:bb:45:77:c8:1f:8e:4b:0f:e5:8a:04:7a:bd:51:6c:
         a0:02:c3:29:92:fb:60:2f:42:e3:09:63:07:f3:f9:70:93:9e:
         4d:68:9c:61:8c:0e:e9:db:23:9b:ee:ac:93:17:4d:94:ba:8b:
         1f:52:e2:cd:42:c3:40:7a:ad:45:77:94:b3:7e:80:71:aa:ba:
         7b:14:7e:b8
-----BEGIN CERTIFICATE-----
MIIDvjCCAqagAwIBAgIBBjANBgkqhkiG9w0BAQsFADBgMQswCQYDVQQGEwJHUjEP
MA0GA1UECAwGQXR0aWtpMQ8wDQYDVQQHDAZBdGhlbnMxETAPBgNVBAoMCFNuYWtl
T0lMMRwwGgYDVQQLDBNTbmFrZU9JTCBEZXBhcnRtZW50MB4XDTE2MDYwOTE0NDEz
NFoXDTIyMTEzMDE0NDEzNFowaDELMAkGA1UEBhMCR1IxDzANBgNVBAgMBkF0dGlr
aTERMA8GA1UECgwIU25ha2VPSUwxHDAaBgNVBAsME1NuYWtlT0lMIERlcGFydG1l
bnQxFzAVBgNVBAMMDnMxLmV4YW1wbGUub3JnMIIBIjANBgkqhkiG9w0BAQEFAAOC
AQ8AMIIBCgKCAQEAz5j5Z4X0vEdsFSiZpn5ESOUxkC9OQR5IDeDWGNCU+8eSHYxC
tjbAmkXeE6XA5DZNGDXHCRCWndYCfOLyfu8WT/UMxJjz7xDNn2paExfUVOLOSRA/
YD98vTox8dtabXZh//HHRpbh2ZwHLtTz1NyrJT1ci0iCVGpQsJZDVKuXt8DSB3W8
VrCv/1VUfaxU6QUeXah6Md+UZU4bonDWG70EXiB1VmR3WZPCn53RYP1t/9T5KkvL
ZgTxkqKxGV2cD23e11qt0BejJ01vwJ+JEoM0YnsQuasxDejSzxhaWtDU9ImCW+gz
a+gPU0x+2bP+3QDpuo7NwUuzqSYCGSrSF9Y0DQIDAQABo3sweTAJBgNVHRMEAjAA
MCwGCWCGSAGG+EIBDQQfFh1PcGVuU1NMIEdlbmVyYXRlZCBDZXJ0aWZpY2F0ZTAd
BgNVHQ4EFgQUVktEAPIm4v6T9/PJZQfVg4Tveo0wHwYDVR0jBBgwFoAUQsWiWXmY
txv78KzQFKsUfEO+mV4wDQYJKoZIhvcNAQELBQADggEBAIXyIwT1XwWCOc5yiJ5F
nPa0/okM4EG/Sy5RULnar9Yjp074ZTCYWSGmb1lkFHaRU7AcrY2Re5GwpAf1FBbD
78gnf0fXQqx/w3aWE/NsD+hccIRCRTvlBXTqYZ8+S6/oA1H6nP+CSypqkBju+mBT
YbTFMcX3a69bRbEzPSk9hOliZv6gURnfdNUTDn6N1lZBzTWHMTfrplA2z8QTUBkE
3P+DBTLY+t1HHCnNHNdGGORUgsp3swLkz7tFd8gfjksP5YoEer1RbKACwymS+2Av
QuMJYwfz+XCTnk1onGGMDunbI5vurJMXTZS6ix9S4s1Cw0B6rUV3lLN+gHGqunsU
frg=
-----END CERTIFICATE-----
